; Function Attrs: nounwind uwtable
define ptr @l_Lean_evalConst___at_Lean_Elab_Command_elabEvalCoreUnsafe___spec__1___rarg(ptr noundef %0, ptr noundef %1, ptr noundef %2, ptr noundef %3, ptr noundef %4, ptr noundef %5, ptr noundef %6, ptr noundef %7) local_unnamed_addr #0 {
  %9 = tail call ptr @lean_st_ref_get(ptr noundef %6, ptr noundef %7) #5
  %10 = getelementptr inbounds nuw i8, ptr %9, i64 8
  %11 = load ptr, ptr %10, align 8, !tbaa !4
  %12 = ptrtoint ptr %11 to i64
  %13 = and i64 %12, 1
  %.not = icmp eq i64 %13, 0
  br i1 %.not, label %14, label %lean_inc.exit26

14:                                               ; preds = %8
  %.val.i = load i32, ptr %11, align 4, !tbaa !8
  %15 = icmp sgt i32 %.val.i, 0
  br i1 %15, label %16, label %18, !prof !11

16:                                               ; preds = %14
  %17 = add nuw i32 %.val.i, 1
  store i32 %17, ptr %11, align 4, !tbaa !8
  br label %lean_inc.exit26

18:                                               ; preds = %14
  %.not.i36 = icmp eq i32 %.val.i, 0
  br i1 %.not.i36, label %lean_inc.exit26, label %19

19:                                               ; preds = %18
  tail call void @lean_inc_ref_cold(ptr noundef nonnull %11) #5
  br label %lean_inc.exit26

lean_inc.exit26:                                  ; preds = %19, %18, %16, %8
  %20 = getelementptr inbounds nuw i8, ptr %9, i64 16
  %21 = load ptr, ptr %20, align 8, !tbaa !4
  %22 = ptrtoint ptr %21 to i64
  %23 = and i64 %22, 1
  %.not43 = icmp eq i64 %23, 0
  br i1 %.not43, label %24, label %lean_inc.exit25

24:                                               ; preds = %lean_inc.exit26
  %.val.i37 = load i32, ptr %21, align 4, !tbaa !8
  %25 = icmp sgt i32 %.val.i37, 0
  br i1 %25, label %26, label %28, !prof !11

26:                                               ; preds = %24
  %27 = add nuw i32 %.val.i37, 1
  store i32 %27, ptr %21, align 4, !tbaa !8
  br label %lean_inc.exit25

28:                                               ; preds = %24
  %.not.i38 = icmp eq i32 %.val.i37, 0
  br i1 %.not.i38, label %lean_inc.exit25, label %29

29:                                               ; preds = %28
  tail call void @lean_inc_ref_cold(ptr noundef nonnull %21) #5
  br label %lean_inc.exit25

lean_inc.exit25:                                  ; preds = %29, %28, %26, %lean_inc.exit26
  %30 = ptrtoint ptr %9 to i64
  %31 = and i64 %30, 1
  %.not44 = icmp eq i64 %31, 0
  br i1 %.not44, label %32, label %lean_dec.exit29

32:                                               ; preds = %lean_inc.exit25
  %33 = load i32, ptr %9, align 4, !tbaa !8
  %34 = icmp sgt i32 %33, 1
  br i1 %34, label %35, label %37, !prof !11

35:                                               ; preds = %32
  %36 = add nsw i32 %33, -1
  store i32 %36, ptr %9, align 4, !tbaa !8
  br label %lean_dec.exit29

37:                                               ; preds = %32
  %.not.i = icmp eq i32 %33, 0
  br i1 %.not.i, label %lean_dec.exit29, label %38

38:                                               ; preds = %37
  tail call void @lean_dec_ref_cold(ptr noundef nonnull %9) #5
  br label %lean_dec.exit29

lean_dec.exit29:                                  ; preds = %38, %37, %35, %lean_inc.exit25
  %39 = getelementptr inbounds nuw i8, ptr %11, i64 8
  %40 = load ptr, ptr %39, align 8, !tbaa !4
  %41 = ptrtoint ptr %40 to i64
  %42 = and i64 %41, 1
  %.not45 = icmp eq i64 %42, 0
  br i1 %.not45, label %43, label %lean_inc.exit

43:                                               ; preds = %lean_dec.exit29
  %.val.i40 = load i32, ptr %40, align 4, !tbaa !8
  %44 = icmp sgt i32 %.val.i40, 0
  br i1 %44, label %45, label %47, !prof !11

45:                                               ; preds = %43
  %46 = add nuw i32 %.val.i40, 1
  store i32 %46, ptr %40, align 4, !tbaa !8
  br label %lean_inc.exit

47:                                               ; preds = %43
  %.not.i41 = icmp eq i32 %.val.i40, 0
  br i1 %.not.i41, label %lean_inc.exit, label %48

48:                                               ; preds = %47
  tail call void @lean_inc_ref_cold(ptr noundef nonnull %40) #5
  br label %lean_inc.exit

lean_inc.exit:                                    ; preds = %48, %47, %45, %lean_dec.exit29
  br i1 %.not, label %49, label %lean_dec.exit28

49:                                               ; preds = %lean_inc.exit
  %50 = load i32, ptr %11, align 4, !tbaa !8
  %51 = icmp sgt i32 %50, 1
  br i1 %51, label %52, label %54, !prof !11

52:                                               ; preds = %49
  %53 = add nsw i32 %50, -1
  store i32 %53, ptr %11, align 4, !tbaa !8
  br label %lean_dec.exit28

54:                                               ; preds = %49
  %.not.i30 = icmp eq i32 %50, 0
  br i1 %.not.i30, label %lean_dec.exit28, label %55

55:                                               ; preds = %54
  tail call void @lean_dec_ref_cold(ptr noundef nonnull %11) #5
  br label %lean_dec.exit28

lean_dec.exit28:                                  ; preds = %55, %54, %52, %lean_inc.exit
  %56 = getelementptr inbounds nuw i8, ptr %5, i64 24
  %57 = load ptr, ptr %56, align 8, !tbaa !4
  %58 = tail call ptr @lean_eval_const(ptr noundef %40, ptr noundef %57, ptr noundef %0) #5
  br i1 %.not45, label %59, label %lean_dec.exit27

59:                                               ; preds = %lean_dec.exit28
  %60 = load i32, ptr %40, align 4, !tbaa !8
  %61 = icmp sgt i32 %60, 1
  br i1 %61, label %62, label %64, !prof !11

62:                                               ; preds = %59
  %63 = add nsw i32 %60, -1
  store i32 %63, ptr %40, align 4, !tbaa !8
  br label %lean_dec.exit27

64:                                               ; preds = %59
  %.not.i32 = icmp eq i32 %60, 0
  br i1 %.not.i32, label %lean_dec.exit27, label %65

65:                                               ; preds = %64
  tail call void @lean_dec_ref_cold(ptr noundef nonnull %40) #5
  br label %lean_dec.exit27

lean_dec.exit27:                                  ; preds = %65, %64, %62, %lean_dec.exit28
  %66 = tail call ptr @l_Lean_ofExcept___at_Lean_Elab_Command_elabEvalCoreUnsafe___spec__2___rarg(ptr noundef %58, ptr noundef %1, ptr noundef %2, ptr noundef %3, ptr noundef %4, ptr noundef nonnull %5, ptr noundef %6, ptr noundef %21)
  %67 = ptrtoint ptr %58 to i64
  %68 = and i64 %67, 1
  %.not46 = icmp eq i64 %68, 0
  br i1 %.not46, label %69, label %lean_dec.exit

69:                                               ; preds = %lean_dec.exit27
  %70 = load i32, ptr %58, align 4, !tbaa !8
  %71 = icmp sgt i32 %70, 1
  br i1 %71, label %72, label %74, !prof !11

72:                                               ; preds = %69
  %73 = add nsw i32 %70, -1
  store i32 %73, ptr %58, align 4, !tbaa !8
  br label %lean_dec.exit

74:                                               ; preds = %69
  %.not.i34 = icmp eq i32 %70, 0
  br i1 %.not.i34, label %lean_dec.exit, label %75

75:                                               ; preds = %74
  tail call void @lean_dec_ref_cold(ptr noundef nonnull %58) #5
  br label %lean_dec.exit

lean_dec.exit:                                    ; preds = %75, %74, %72, %lean_dec.exit27
  ret ptr %66
}